target datalayout = "e-m:e-p270:32:32-p271:32:32-p272:64:64-i64:64-i128:128-f80:128-n8:16:32:64-S128"
target triple = "x86_64-pc-linux-gnu"

%struct.H5S_t = type { %struct.H5S_extent_t, %struct.H5S_select_t }
%struct.H5S_extent_t = type { %struct.H5O_shared_t, i32, i32, i64, i32, ptr, ptr }
%struct.H5O_shared_t = type { i32, ptr, i32, %union.anon }
%union.anon = type { %struct.H5O_mesg_loc_t }
%struct.H5O_mesg_loc_t = type { i32, i64 }
%struct.H5S_select_t = type { ptr, i8, [32 x i64], i64, %union.anon.0 }
%union.anon.0 = type { ptr }
%struct.H5S_hyper_sel_t = type { i32, %struct.H5S_hyper_diminfo_t, i32, i64, ptr }
%struct.H5S_hyper_diminfo_t = type { [32 x %struct.H5S_hyper_dim_t], [32 x %struct.H5S_hyper_dim_t], [32 x i64], [32 x i64] }
%struct.H5S_hyper_dim_t = type { i64, i64, i64, i64 }

@H5S_init_g = external global i8, align 1
@H5_libterm_g = external global i8, align 1
@.str = private unnamed_addr constant [102 x i8] c"generated/home/dtcxzyw/WorkSpace/Projects/compilers/llvm-opt-benchmark/bench/hdf5/hdf5/src/H5Shyper.c\00", align 1
@H5E_FUNC_g = external global i64, align 8
@H5E_CANTINIT_g = external global i64, align 8
@.str.2 = private unnamed_addr constant [32 x i8] c"interface initialization failed\00", align 1
@__func__.H5S_hyper_get_first_inc_block = private unnamed_addr constant [30 x i8] c"H5S_hyper_get_first_inc_block\00", align 1

; Function Attrs: nounwind uwtable
define i64 @H5S_hyper_get_first_inc_block(ptr noundef %0, i64 noundef %1, ptr noundef %2) #0 {
  %4 = alloca ptr, align 8
  %5 = alloca i64, align 8
  %6 = alloca ptr, align 8
  %7 = alloca ptr, align 8
  %8 = alloca ptr, align 8
  %9 = alloca i64, align 8
  %10 = alloca i8, align 1
  store ptr %0, ptr %4, align 8, !tbaa !3
  store i64 %1, ptr %5, align 8, !tbaa !15
  store ptr %2, ptr %6, align 8, !tbaa !201
  call void @llvm.lifetime.start.p0(i64 8, ptr %7) #7
  call void @llvm.lifetime.start.p0(i64 8, ptr %8) #7
  call void @llvm.lifetime.start.p0(i64 8, ptr %9) #7
  store i64 0, ptr %9, align 8, !tbaa !15
  call void @llvm.lifetime.start.p0(i64 1, ptr %10) #7
  store i8 0, ptr %10, align 1, !tbaa !8
  %11 = load i8, ptr @H5S_init_g, align 1, !tbaa !8, !range !12, !noundef !13
  %12 = trunc i8 %11 to i1
  br i1 %12, label %17, label %13

13:                                               ; preds = %3
  %14 = load i8, ptr @H5_libterm_g, align 1, !tbaa !8, !range !12, !noundef !13
  %15 = trunc i8 %14 to i1
  %16 = xor i1 %15, true
  br label %17

17:                                               ; preds = %13, %3
  %18 = phi i1 [ false, %3 ], [ %16, %13 ]
  %19 = xor i1 %18, true
  %20 = xor i1 %19, true
  %21 = zext i1 %20 to i32
  %22 = sext i32 %21 to i64
  %23 = call i64 @llvm.expect.i64(i64 %22, i64 0)
  %24 = icmp ne i64 %23, 0
  br i1 %24, label %25, label %48

25:                                               ; preds = %17
  store i8 1, ptr @H5S_init_g, align 1, !tbaa !8
  %26 = call i32 @H5S__init_package()
  %27 = icmp slt i32 %26, 0
  br i1 %27, label %28, label %47

28:                                               ; preds = %25
  store i8 0, ptr @H5S_init_g, align 1, !tbaa !8
  br label %29

29:                                               ; preds = %28
  br label %30

30:                                               ; preds = %29
  br label %31

31:                                               ; preds = %30
  %32 = load i64, ptr @H5E_FUNC_g, align 8, !tbaa !15
  %33 = load i64, ptr @H5E_CANTINIT_g, align 8, !tbaa !15
  %34 = call i32 (ptr, ptr, i32, i64, i64, ptr, ...) @H5E_printf_stack(ptr noundef @.str, ptr noundef @__func__.H5S_hyper_get_first_inc_block, i32 noundef 12323, i64 noundef %32, i64 noundef %33, ptr noundef @.str.2)
  br label %35

35:                                               ; preds = %31
  br label %36

36:                                               ; preds = %35
  store i8 1, ptr %10, align 1, !tbaa !8
  %37 = load i8, ptr %10, align 1, !tbaa !8, !range !12, !noundef !13
  %38 = trunc i8 %37 to i1
  %39 = zext i1 %38 to i8
  store i8 %39, ptr %10, align 1, !tbaa !8
  br label %40

40:                                               ; preds = %36
  br label %41

41:                                               ; preds = %40
  br label %42

42:                                               ; preds = %41
  store i64 0, ptr %9, align 8, !tbaa !15
  br label %126

43:                                               ; No predecessors!
  br label %44

44:                                               ; preds = %43
  br label %45

45:                                               ; preds = %44
  br label %46

46:                                               ; preds = %45
  br label %47

47:                                               ; preds = %46, %25
  br label %48

48:                                               ; preds = %47, %17
  %49 = load i8, ptr @H5S_init_g, align 1, !tbaa !8, !range !12, !noundef !13
  %50 = trunc i8 %49 to i1
  br i1 %50, label %55, label %51

51:                                               ; preds = %48
  %52 = load i8, ptr @H5_libterm_g, align 1, !tbaa !8, !range !12, !noundef !13
  %53 = trunc i8 %52 to i1
  %54 = xor i1 %53, true
  br label %55

55:                                               ; preds = %51, %48
  %56 = phi i1 [ true, %48 ], [ %54, %51 ]
  %57 = xor i1 %56, true
  %58 = xor i1 %57, true
  %59 = zext i1 %58 to i32
  %60 = sext i32 %59 to i64
  %61 = call i64 @llvm.expect.i64(i64 %60, i64 1)
  %62 = icmp ne i64 %61, 0
  br i1 %62, label %63, label %127

63:                                               ; preds = %55
  %64 = load ptr, ptr %4, align 8, !tbaa !3
  %65 = getelementptr inbounds nuw %struct.H5S_t, ptr %64, i32 0, i32 1
  %66 = getelementptr inbounds nuw %struct.H5S_select_t, ptr %65, i32 0, i32 4
  %67 = load ptr, ptr %66, align 8, !tbaa !14
  store ptr %67, ptr %7, align 8, !tbaa !17
  %68 = load ptr, ptr %7, align 8, !tbaa !17
  %69 = getelementptr inbounds nuw %struct.H5S_hyper_sel_t, ptr %68, i32 0, i32 1
  %70 = getelementptr inbounds nuw %struct.H5S_hyper_diminfo_t, ptr %69, i32 0, i32 1
  %71 = load ptr, ptr %7, align 8, !tbaa !17
  %72 = getelementptr inbounds nuw %struct.H5S_hyper_sel_t, ptr %71, i32 0, i32 2
  %73 = load i32, ptr %72, align 8, !tbaa !30
  %74 = sext i32 %73 to i64
  %75 = getelementptr inbounds [32 x %struct.H5S_hyper_dim_t], ptr %70, i64 0, i64 %74
  store ptr %75, ptr %8, align 8, !tbaa !41
  %76 = load ptr, ptr %8, align 8, !tbaa !41
  %77 = getelementptr inbounds nuw %struct.H5S_hyper_dim_t, ptr %76, i32 0, i32 0
  %78 = load i64, ptr %77, align 8, !tbaa !46
  %79 = load i64, ptr %5, align 8, !tbaa !15
  %80 = icmp uge i64 %78, %79
  br i1 %80, label %81, label %87

81:                                               ; preds = %63
  store i64 0, ptr %9, align 8, !tbaa !15
  %82 = load ptr, ptr %6, align 8, !tbaa !201
  %83 = icmp ne ptr %82, null
  br i1 %83, label %84, label %86

84:                                               ; preds = %81
  %85 = load ptr, ptr %6, align 8, !tbaa !201
  store i8 0, ptr %85, align 1, !tbaa !8
  br label %86

86:                                               ; preds = %84, %81
  br label %125

87:                                               ; preds = %63
  %88 = load i64, ptr %5, align 8, !tbaa !15
  %89 = load ptr, ptr %8, align 8, !tbaa !41
  %90 = getelementptr inbounds nuw %struct.H5S_hyper_dim_t, ptr %89, i32 0, i32 0
  %91 = load i64, ptr %90, align 8, !tbaa !46
  %92 = sub i64 %88, %91
  %93 = load ptr, ptr %8, align 8, !tbaa !41
  %94 = getelementptr inbounds nuw %struct.H5S_hyper_dim_t, ptr %93, i32 0, i32 1
  %95 = load i64, ptr %94, align 8, !tbaa !48
  %96 = add i64 %92, %95
  %97 = load ptr, ptr %8, align 8, !tbaa !41
  %98 = getelementptr inbounds nuw %struct.H5S_hyper_dim_t, ptr %97, i32 0, i32 3
  %99 = load i64, ptr %98, align 8, !tbaa !50
  %100 = sub i64 %96, %99
  %101 = load ptr, ptr %8, align 8, !tbaa !41
  %102 = getelementptr inbounds nuw %struct.H5S_hyper_dim_t, ptr %101, i32 0, i32 1
  %103 = load i64, ptr %102, align 8, !tbaa !48
  %104 = udiv i64 %100, %103
  store i64 %104, ptr %9, align 8, !tbaa !15
  %105 = load ptr, ptr %6, align 8, !tbaa !201
  %106 = icmp ne ptr %105, null
  br i1 %106, label %107, label %124

107:                                              ; preds = %87
  %108 = load ptr, ptr %8, align 8, !tbaa !41
  %109 = getelementptr inbounds nuw %struct.H5S_hyper_dim_t, ptr %108, i32 0, i32 1
  %110 = load i64, ptr %109, align 8, !tbaa !48
  %111 = load i64, ptr %9, align 8, !tbaa !15
  %112 = mul i64 %110, %111
  %113 = load i64, ptr %5, align 8, !tbaa !15
  %114 = load ptr, ptr %8, align 8, !tbaa !41
  %115 = getelementptr inbounds nuw %struct.H5S_hyper_dim_t, ptr %114, i32 0, i32 0
  %116 = load i64, ptr %115, align 8, !tbaa !46
  %117 = sub i64 %113, %116
  %118 = icmp ult i64 %112, %117
  br i1 %118, label %119, label %121

119:                                              ; preds = %107
  %120 = load ptr, ptr %6, align 8, !tbaa !201
  store i8 1, ptr %120, align 1, !tbaa !8
  br label %123

121:                                              ; preds = %107
  %122 = load ptr, ptr %6, align 8, !tbaa !201
  store i8 0, ptr %122, align 1, !tbaa !8
  br label %123

123:                                              ; preds = %121, %119
  br label %124

124:                                              ; preds = %123, %87
  br label %125

125:                                              ; preds = %124, %86
  br label %126

126:                                              ; preds = %125, %42
  br label %127

127:                                              ; preds = %126, %55
  %128 = load i64, ptr %9, align 8, !tbaa !15
  call void @llvm.lifetime.end.p0(i64 1, ptr %10) #7
  call void @llvm.lifetime.end.p0(i64 8, ptr %9) #7
  call void @llvm.lifetime.end.p0(i64 8, ptr %8) #7
  call void @llvm.lifetime.end.p0(i64 8, ptr %7) #7
  ret i64 %128
}