; Function Attrs: nounwind uwtable
define i64 @H5S_hyper_get_first_inc_block(ptr noundef readonly captures(none) %0, i64 noundef %1, ptr noundef writeonly captures(address_is_null) %2) local_unnamed_addr #0 {
  %4 = load i8, ptr @H5S_init_g, align 1, !tbaa !3, !range !7, !noundef !8
  %5 = trunc nuw i8 %4 to i1
  %6 = load i8, ptr @H5_libterm_g, align 1, !range !7
  %7 = trunc nuw i8 %6 to i1
  %8 = select i1 %5, i1 true, i1 %7
  br i1 %8, label %16, label %9, !prof !9

9:                                                ; preds = %3
  store i8 1, ptr @H5S_init_g, align 1, !tbaa !3
  %10 = tail call i32 @H5S__init_package() #14
  %11 = icmp slt i32 %10, 0
  br i1 %11, label %12, label %._crit_edge

._crit_edge:                                      ; preds = %9
  %.pre = load i8, ptr @H5S_init_g, align 1, !tbaa !3, !range !7
  %.pre25 = load i8, ptr @H5_libterm_g, align 1, !range !7
  %.pre26 = trunc nuw i8 %.pre to i1
  %.pre27 = trunc nuw i8 %.pre25 to i1
  br label %16

12:                                               ; preds = %9
  store i8 0, ptr @H5S_init_g, align 1, !tbaa !3
  %13 = load i64, ptr @H5E_FUNC_g, align 8, !tbaa !11
  %14 = load i64, ptr @H5E_CANTINIT_g, align 8, !tbaa !11
  %15 = tail call i32 (ptr, ptr, i32, i64, i64, ptr, ...) @H5E_printf_stack(ptr noundef nonnull @.str, ptr noundef nonnull @__func__.H5S_hyper_get_first_inc_block, i32 noundef 12323, i64 noundef %13, i64 noundef %14, ptr noundef nonnull @.str.2) #14
  br label %44

16:                                               ; preds = %._crit_edge, %3
  %.pre-phi28 = phi i1 [ %.pre27, %._crit_edge ], [ %7, %3 ]
  %.pre-phi = phi i1 [ %.pre26, %._crit_edge ], [ %5, %3 ]
  %17 = xor i1 %.pre-phi28, true
  %18 = select i1 %.pre-phi, i1 true, i1 %17
  br i1 %18, label %19, label %44, !prof !9

19:                                               ; preds = %16
  %20 = getelementptr inbounds nuw i8, ptr %0, i64 360
  %21 = load ptr, ptr %20, align 8, !tbaa !10
  %22 = getelementptr inbounds nuw i8, ptr %21, i64 1032
  %23 = getelementptr inbounds nuw i8, ptr %21, i64 2568
  %24 = load i32, ptr %23, align 8, !tbaa !28
  %25 = sext i32 %24 to i64
  %26 = getelementptr inbounds [32 x %struct.H5S_hyper_dim_t], ptr %22, i64 0, i64 %25
  %27 = load i64, ptr %26, align 8, !tbaa !44
  %.not = icmp ult i64 %27, %1
  br i1 %.not, label %30, label %28

28:                                               ; preds = %19
  %.not24 = icmp eq ptr %2, null
  br i1 %.not24, label %44, label %29

29:                                               ; preds = %28
  store i8 0, ptr %2, align 1, !tbaa !3
  br label %44

30:                                               ; preds = %19
  %31 = sub nuw i64 %1, %27
  %32 = getelementptr inbounds nuw i8, ptr %26, i64 8
  %33 = load i64, ptr %32, align 8, !tbaa !45
  %34 = add i64 %33, %31
  %35 = getelementptr inbounds nuw i8, ptr %26, i64 24
  %36 = load i64, ptr %35, align 8, !tbaa !46
  %37 = sub i64 %34, %36
  %38 = udiv i64 %37, %33
  %.not23 = icmp eq ptr %2, null
  br i1 %.not23, label %44, label %39

39:                                               ; preds = %30
  %40 = mul i64 %38, %33
  %41 = icmp ult i64 %40, %31
  br i1 %41, label %42, label %43

42:                                               ; preds = %39
  store i8 1, ptr %2, align 1, !tbaa !3
  br label %44

43:                                               ; preds = %39
  store i8 0, ptr %2, align 1, !tbaa !3
  br label %44

44:                                               ; preds = %12, %30, %43, %42, %28, %29, %16
  %.0 = phi i64 [ 0, %12 ], [ 0, %29 ], [ 0, %28 ], [ %38, %42 ], [ %38, %43 ], [ %38, %30 ], [ 0, %16 ]
  ret i64 %.0
}